; Function Attrs: nofree norecurse nosync nounwind memory(argmem: readwrite) uwtable
define internal void @_blend_add(ptr noundef readonly captures(none) %0, ptr noundef readonly captures(none) %1, ptr noundef writeonly captures(none) %2, ptr noalias noundef readonly captures(none) %3, i64 noundef %4, ptr noundef readonly captures(none) %5, ptr noundef readonly captures(none) %6) unnamed_addr #11 {
  %8 = alloca [4 x float], align 16
  %9 = alloca [4 x float], align 16
  %.not = icmp eq i64 %4, 0
  br i1 %.not, label %._crit_edge, label %.lr.ph

._crit_edge:                                      ; preds = %_blend_Lab_rescale.exit, %7
  ret void

.lr.ph:                                           ; preds = %7, %_blend_Lab_rescale.exit
  %.02633 = phi i64 [ %43, %_blend_Lab_rescale.exit ], [ 0, %7 ]
  %10 = shl i64 %.02633, 2
  %11 = getelementptr inbounds nuw float, ptr %3, i64 %.02633
  %12 = load float, ptr %11, align 4, !tbaa !36
  call void @llvm.lifetime.start.p0(i64 16, ptr nonnull %8) #8
  call void @llvm.lifetime.start.p0(i64 16, ptr nonnull %9) #8
  %13 = getelementptr inbounds nuw float, ptr %0, i64 %10
  br label %14

14:                                               ; preds = %14, %.lr.ph
  %.06.i = phi i64 [ 0, %.lr.ph ], [ %21, %14 ]
  %15 = getelementptr inbounds nuw float, ptr %13, i64 %.06.i
  %16 = load float, ptr %15, align 4, !tbaa !36
  %17 = getelementptr inbounds nuw [4 x float], ptr @__const._blend_Lab_scale.scale, i64 0, i64 %.06.i
  %18 = load float, ptr %17, align 4, !tbaa !36
  %19 = fmul reassoc nsz arcp contract afn float %18, %16
  %20 = getelementptr inbounds nuw float, ptr %8, i64 %.06.i
  store float %19, ptr %20, align 4, !tbaa !36
  %21 = add nuw nsw i64 %.06.i, 1
  %exitcond.not.i = icmp eq i64 %21, 4
  br i1 %exitcond.not.i, label %_blend_Lab_scale.exit, label %14

_blend_Lab_scale.exit:                            ; preds = %14
  %22 = getelementptr inbounds nuw float, ptr %1, i64 %10
  br label %23

23:                                               ; preds = %23, %_blend_Lab_scale.exit
  %.06.i27 = phi i64 [ 0, %_blend_Lab_scale.exit ], [ %30, %23 ]
  %24 = getelementptr inbounds nuw float, ptr %22, i64 %.06.i27
  %25 = load float, ptr %24, align 4, !tbaa !36
  %26 = getelementptr inbounds nuw [4 x float], ptr @__const._blend_Lab_scale.scale, i64 0, i64 %.06.i27
  %27 = load float, ptr %26, align 4, !tbaa !36
  %28 = fmul reassoc nsz arcp contract afn float %27, %25
  %29 = getelementptr inbounds nuw float, ptr %9, i64 %.06.i27
  store float %28, ptr %29, align 4, !tbaa !36
  %30 = add nuw nsw i64 %.06.i27, 1
  %exitcond.not.i28 = icmp eq i64 %30, 4
  br i1 %exitcond.not.i28, label %_blend_Lab_scale.exit29, label %23

31:                                               ; preds = %_blend_Lab_scale.exit29
  %32 = getelementptr inbounds nuw float, ptr %2, i64 %10
  br label %33

33:                                               ; preds = %33, %31
  %.06.i30 = phi i64 [ 0, %31 ], [ %40, %33 ]
  %34 = getelementptr inbounds nuw float, ptr %9, i64 %.06.i30
  %35 = load float, ptr %34, align 4, !tbaa !36
  %36 = getelementptr inbounds nuw [4 x float], ptr @__const._blend_Lab_rescale.scale, i64 0, i64 %.06.i30
  %37 = load float, ptr %36, align 4, !tbaa !36
  %38 = fmul reassoc nsz arcp contract afn float %37, %35
  %39 = getelementptr inbounds nuw float, ptr %32, i64 %.06.i30
  store float %38, ptr %39, align 4, !tbaa !36
  %40 = add nuw nsw i64 %.06.i30, 1
  %exitcond.not.i31 = icmp eq i64 %40, 4
  br i1 %exitcond.not.i31, label %_blend_Lab_rescale.exit, label %33

_blend_Lab_rescale.exit:                          ; preds = %33
  %41 = or disjoint i64 %10, 3
  %42 = getelementptr inbounds nuw float, ptr %2, i64 %41
  store float %12, ptr %42, align 4, !tbaa !36
  call void @llvm.lifetime.end.p0(i64 16, ptr nonnull %9) #8
  call void @llvm.lifetime.end.p0(i64 16, ptr nonnull %8) #8
  %43 = add nuw i64 %.02633, 1
  %exitcond34.not = icmp eq i64 %43, %4
  br i1 %exitcond34.not, label %._crit_edge, label %.lr.ph

_blend_Lab_scale.exit29:                          ; preds = %23, %_blend_Lab_scale.exit29
  %.032 = phi i64 [ %56, %_blend_Lab_scale.exit29 ], [ 0, %23 ]
  %44 = getelementptr inbounds nuw [4 x float], ptr %8, i64 0, i64 %.032
  %45 = load float, ptr %44, align 4, !tbaa !36
  %46 = getelementptr inbounds nuw [4 x float], ptr %9, i64 0, i64 %.032
  %47 = load float, ptr %46, align 4, !tbaa !36
  %48 = fmul reassoc nsz arcp contract afn float %47, %12
  %49 = fadd reassoc nsz arcp contract afn float %48, %45
  %50 = getelementptr inbounds nuw float, ptr %5, i64 %.032
  %51 = load float, ptr %50, align 4, !tbaa !36
  %52 = getelementptr inbounds nuw float, ptr %6, i64 %.032
  %53 = load float, ptr %52, align 4, !tbaa !36
  %54 = tail call reassoc nsz arcp contract afn float @llvm.maxnum.f32(float %49, float %51)
  %55 = tail call reassoc nsz arcp contract afn noundef float @llvm.minnum.f32(float %54, float %53)
  store float %55, ptr %46, align 4, !tbaa !36
  %56 = add nuw nsw i64 %.032, 1
  %exitcond.not = icmp eq i64 %56, 4
  br i1 %exitcond.not, label %31, label %_blend_Lab_scale.exit29
}